target datalayout = "e-m:e-p270:32:32-p271:32:32-p272:64:64-i64:64-i128:128-f80:128-n8:16:32:64-S128"
target triple = "x86_64-pc-linux-gnu"

@hf_amqp_method_stream_deliver_consumer_tag = internal global i32 0, align 4
@hf_amqp_method_stream_deliver_delivery_tag = internal global i32 0, align 4
@hf_amqp_method_stream_deliver_exchange = internal global i32 0, align 4
@hf_amqp_method_stream_deliver_queue = internal global i32 0, align 4

; Function Attrs: null_pointer_is_valid sspstrong uwtable
define internal i32 @dissect_amqp_0_9_method_stream_deliver(ptr noundef %0, i32 noundef %1, ptr noundef %2) #0 {
  %4 = alloca ptr, align 8
  %5 = alloca i32, align 4
  %6 = alloca ptr, align 8
  store ptr %0, ptr %4, align 8
  store i32 %1, ptr %5, align 4
  store ptr %2, ptr %6, align 8
  %7 = load ptr, ptr %6, align 8
  %8 = load i32, ptr @hf_amqp_method_stream_deliver_consumer_tag, align 4
  %9 = load ptr, ptr %4, align 8
  %10 = load i32, ptr %5, align 4
  %11 = add i32 %10, 1
  %12 = load ptr, ptr %4, align 8
  %13 = load i32, ptr %5, align 4
  %14 = call zeroext i8 @tvb_get_uint8(ptr noundef %12, i32 noundef %13)
  %15 = zext i8 %14 to i32
  %16 = call ptr @proto_tree_add_item(ptr noundef %7, i32 noundef %8, ptr noundef %9, i32 noundef %11, i32 noundef %15, i32 noundef 0)
  %17 = load ptr, ptr %4, align 8
  %18 = load i32, ptr %5, align 4
  %19 = call zeroext i8 @tvb_get_uint8(ptr noundef %17, i32 noundef %18)
  %20 = zext i8 %19 to i32
  %21 = add i32 1, %20
  %22 = load i32, ptr %5, align 4
  %23 = add i32 %22, %21
  store i32 %23, ptr %5, align 4
  %24 = load ptr, ptr %6, align 8
  %25 = load i32, ptr @hf_amqp_method_stream_deliver_delivery_tag, align 4
  %26 = load ptr, ptr %4, align 8
  %27 = load i32, ptr %5, align 4
  %28 = call ptr @proto_tree_add_item(ptr noundef %24, i32 noundef %25, ptr noundef %26, i32 noundef %27, i32 noundef 8, i32 noundef 0)
  %29 = load i32, ptr %5, align 4
  %30 = add i32 %29, 8
  store i32 %30, ptr %5, align 4
  %31 = load ptr, ptr %6, align 8
  %32 = load i32, ptr @hf_amqp_method_stream_deliver_exchange, align 4
  %33 = load ptr, ptr %4, align 8
  %34 = load i32, ptr %5, align 4
  %35 = add i32 %34, 1
  %36 = load ptr, ptr %4, align 8
  %37 = load i32, ptr %5, align 4
  %38 = call zeroext i8 @tvb_get_uint8(ptr noundef %36, i32 noundef %37)
  %39 = zext i8 %38 to i32
  %40 = call ptr @proto_tree_add_item(ptr noundef %31, i32 noundef %32, ptr noundef %33, i32 noundef %35, i32 noundef %39, i32 noundef 0)
  %41 = load ptr, ptr %4, align 8
  %42 = load i32, ptr %5, align 4
  %43 = call zeroext i8 @tvb_get_uint8(ptr noundef %41, i32 noundef %42)
  %44 = zext i8 %43 to i32
  %45 = add i32 1, %44
  %46 = load i32, ptr %5, align 4
  %47 = add i32 %46, %45
  store i32 %47, ptr %5, align 4
  %48 = load ptr, ptr %6, align 8
  %49 = load i32, ptr @hf_amqp_method_stream_deliver_queue, align 4
  %50 = load ptr, ptr %4, align 8
  %51 = load i32, ptr %5, align 4
  %52 = add i32 %51, 1
  %53 = load ptr, ptr %4, align 8
  %54 = load i32, ptr %5, align 4
  %55 = call zeroext i8 @tvb_get_uint8(ptr noundef %53, i32 noundef %54)
  %56 = zext i8 %55 to i32
  %57 = call ptr @proto_tree_add_item(ptr noundef %48, i32 noundef %49, ptr noundef %50, i32 noundef %52, i32 noundef %56, i32 noundef 0)
  %58 = load ptr, ptr %4, align 8
  %59 = load i32, ptr %5, align 4
  %60 = call zeroext i8 @tvb_get_uint8(ptr noundef %58, i32 noundef %59)
  %61 = zext i8 %60 to i32
  %62 = add i32 1, %61
  %63 = load i32, ptr %5, align 4
  %64 = add i32 %63, %62
  store i32 %64, ptr %5, align 4
  %65 = load i32, ptr %5, align 4
  ret i32 %65
}