; Function Attrs: null_pointer_is_valid sspstrong uwtable
define internal fastcc void @dissect_amqp_0_9_method_stream_deliver(ptr noundef %0, ptr noundef %1) unnamed_addr #0 {
  %3 = load i32, ptr @hf_amqp_method_stream_deliver_consumer_tag, align 4
  %4 = tail call zeroext i8 @tvb_get_uint8(ptr noundef %0, i32 noundef 11)
  %5 = zext i8 %4 to i32
  %6 = tail call ptr @proto_tree_add_item(ptr noundef %1, i32 noundef %3, ptr noundef %0, i32 noundef 12, i32 noundef %5, i32 noundef 0)
  %7 = tail call zeroext i8 @tvb_get_uint8(ptr noundef %0, i32 noundef 11)
  %8 = zext i8 %7 to i32
  %9 = add nuw nsw i32 %8, 12
  %10 = load i32, ptr @hf_amqp_method_stream_deliver_delivery_tag, align 4
  %11 = tail call ptr @proto_tree_add_item(ptr noundef %1, i32 noundef %10, ptr noundef %0, i32 noundef %9, i32 noundef 8, i32 noundef 0)
  %12 = add nuw nsw i32 %8, 20
  %13 = load i32, ptr @hf_amqp_method_stream_deliver_exchange, align 4
  %14 = add nuw nsw i32 %8, 21
  %15 = tail call zeroext i8 @tvb_get_uint8(ptr noundef %0, i32 noundef %12)
  %16 = zext i8 %15 to i32
  %17 = tail call ptr @proto_tree_add_item(ptr noundef %1, i32 noundef %13, ptr noundef %0, i32 noundef %14, i32 noundef %16, i32 noundef 0)
  %18 = tail call zeroext i8 @tvb_get_uint8(ptr noundef %0, i32 noundef %12)
  %19 = zext i8 %18 to i32
  %20 = add nuw nsw i32 %14, %19
  %21 = load i32, ptr @hf_amqp_method_stream_deliver_queue, align 4
  %22 = add nuw nsw i32 %20, 1
  %23 = tail call zeroext i8 @tvb_get_uint8(ptr noundef %0, i32 noundef %20)
  %24 = zext i8 %23 to i32
  %25 = tail call ptr @proto_tree_add_item(ptr noundef %1, i32 noundef %21, ptr noundef %0, i32 noundef %22, i32 noundef %24, i32 noundef 0)
  %26 = tail call zeroext i8 @tvb_get_uint8(ptr noundef %0, i32 noundef %20)
  ret void
}